target datalayout = "e-m:e-p270:32:32-p271:32:32-p272:64:64-i64:64-i128:128-f80:128-n8:16:32:64-S128"
target triple = "x86_64-pc-linux-gnu"

%struct.AVRational = type { i32, i32 }
%struct.AVChannelLayout = type { i32, i32, %union.anon.1, ptr }
%union.anon.1 = type { i64 }
%struct.AVFrame = type { [8 x ptr], [8 x i32], ptr, i32, i32, i32, i32, i32, %struct.AVRational, i64, i64, %struct.AVRational, i32, ptr, i32, i32, [8 x ptr], ptr, i32, ptr, i32, i32, i32, i32, i32, i32, i32, i64, ptr, i32, ptr, ptr, i64, i64, i64, i64, ptr, %struct.AVChannelLayout, i64 }

; Function Attrs: nounwind uwtable
define internal void @color_frame(ptr noundef %0, i32 noundef %1) #3 {
  %3 = alloca ptr, align 8
  %4 = alloca i32, align 4
  %5 = alloca i32, align 4
  %6 = alloca i32, align 4
  %7 = alloca i32, align 4
  %8 = alloca i32, align 4
  %9 = alloca i32, align 4
  store ptr %0, ptr %3, align 8, !tbaa !97
  store i32 %1, ptr %4, align 4, !tbaa !68
  call void @llvm.lifetime.start.p0(i64 4, ptr %5) #11
  call void @llvm.lifetime.start.p0(i64 4, ptr %6) #11
  call void @llvm.lifetime.start.p0(i64 4, ptr %7) #11
  store i32 0, ptr %7, align 4, !tbaa !68
  br label %10

10:                                               ; preds = %36, %2
  %11 = load i32, ptr %7, align 4, !tbaa !68
  %12 = load ptr, ptr %3, align 8, !tbaa !97
  %13 = getelementptr inbounds nuw %struct.AVFrame, ptr %12, i32 0, i32 4
  %14 = load i32, ptr %13, align 4, !tbaa !98
  %15 = icmp slt i32 %11, %14
  br i1 %15, label %17, label %16

16:                                               ; preds = %10
  call void @llvm.lifetime.end.p0(i64 4, ptr %7) #11
  br label %39

17:                                               ; preds = %10
  %18 = load ptr, ptr %3, align 8, !tbaa !97
  %19 = getelementptr inbounds nuw %struct.AVFrame, ptr %18, i32 0, i32 0
  %20 = getelementptr inbounds [8 x ptr], ptr %19, i64 0, i64 0
  %21 = load ptr, ptr %20, align 8, !tbaa !103
  %22 = load ptr, ptr %3, align 8, !tbaa !97
  %23 = getelementptr inbounds nuw %struct.AVFrame, ptr %22, i32 0, i32 1
  %24 = getelementptr inbounds [8 x i32], ptr %23, i64 0, i64 0
  %25 = load i32, ptr %24, align 8, !tbaa !68
  %26 = load i32, ptr %7, align 4, !tbaa !68
  %27 = mul nsw i32 %25, %26
  %28 = sext i32 %27 to i64
  %29 = getelementptr inbounds i8, ptr %21, i64 %28
  %30 = load i32, ptr %4, align 4, !tbaa !68
  %31 = trunc i32 %30 to i8
  %32 = load ptr, ptr %3, align 8, !tbaa !97
  %33 = getelementptr inbounds nuw %struct.AVFrame, ptr %32, i32 0, i32 3
  %34 = load i32, ptr %33, align 8, !tbaa !104
  %35 = sext i32 %34 to i64
  call void @llvm.memset.p0.i64(ptr align 1 %29, i8 %31, i64 %35, i1 false)
  br label %36

36:                                               ; preds = %17
  %37 = load i32, ptr %7, align 4, !tbaa !68
  %38 = add nsw i32 %37, 1
  store i32 %38, ptr %7, align 4, !tbaa !68
  br label %10, !llvm.loop !105

39:                                               ; preds = %16
  %40 = load ptr, ptr %3, align 8, !tbaa !97
  %41 = getelementptr inbounds nuw %struct.AVFrame, ptr %40, i32 0, i32 0
  %42 = getelementptr inbounds [8 x ptr], ptr %41, i64 0, i64 1
  %43 = load ptr, ptr %42, align 8, !tbaa !103
  %44 = icmp ne ptr %43, null
  br i1 %44, label %46, label %45

45:                                               ; preds = %39
  store i32 1, ptr %8, align 4
  br label %152

46:                                               ; preds = %39
  %47 = load ptr, ptr %3, align 8, !tbaa !97
  %48 = getelementptr inbounds nuw %struct.AVFrame, ptr %47, i32 0, i32 6
  %49 = load i32, ptr %48, align 4, !tbaa !107
  %50 = call i32 @av_pix_fmt_get_chroma_sub_sample(i32 noundef %49, ptr noundef %5, ptr noundef %6)
  call void @llvm.lifetime.start.p0(i64 4, ptr %9) #11
  store i32 0, ptr %9, align 4, !tbaa !68
  br label %51

51:                                               ; preds = %148, %46
  %52 = load i32, ptr %9, align 4, !tbaa !68
  %53 = load i32, ptr %6, align 4, !tbaa !68
  %54 = call i1 @llvm.is.constant.i32(i32 %53)
  br i1 %54, label %63, label %55

55:                                               ; preds = %51
  %56 = load ptr, ptr %3, align 8, !tbaa !97
  %57 = getelementptr inbounds nuw %struct.AVFrame, ptr %56, i32 0, i32 4
  %58 = load i32, ptr %57, align 4, !tbaa !98
  %59 = sub nsw i32 0, %58
  %60 = load i32, ptr %6, align 4, !tbaa !68
  %61 = ashr i32 %59, %60
  %62 = sub nsw i32 0, %61
  br label %73

63:                                               ; preds = %51
  %64 = load ptr, ptr %3, align 8, !tbaa !97
  %65 = getelementptr inbounds nuw %struct.AVFrame, ptr %64, i32 0, i32 4
  %66 = load i32, ptr %65, align 4, !tbaa !98
  %67 = load i32, ptr %6, align 4, !tbaa !68
  %68 = shl i32 1, %67
  %69 = add nsw i32 %66, %68
  %70 = sub nsw i32 %69, 1
  %71 = load i32, ptr %6, align 4, !tbaa !68
  %72 = ashr i32 %70, %71
  br label %73

73:                                               ; preds = %63, %55
  %74 = phi i32 [ %62, %55 ], [ %72, %63 ]
  %75 = icmp slt i32 %52, %74
  br i1 %75, label %77, label %76

76:                                               ; preds = %73
  store i32 5, ptr %8, align 4
  call void @llvm.lifetime.end.p0(i64 4, ptr %9) #11
  br label %151

77:                                               ; preds = %73
  %78 = load ptr, ptr %3, align 8, !tbaa !97
  %79 = getelementptr inbounds nuw %struct.AVFrame, ptr %78, i32 0, i32 0
  %80 = getelementptr inbounds [8 x ptr], ptr %79, i64 0, i64 1
  %81 = load ptr, ptr %80, align 8, !tbaa !103
  %82 = load ptr, ptr %3, align 8, !tbaa !97
  %83 = getelementptr inbounds nuw %struct.AVFrame, ptr %82, i32 0, i32 1
  %84 = getelementptr inbounds [8 x i32], ptr %83, i64 0, i64 1
  %85 = load i32, ptr %84, align 4, !tbaa !68
  %86 = load i32, ptr %9, align 4, !tbaa !68
  %87 = mul nsw i32 %85, %86
  %88 = sext i32 %87 to i64
  %89 = getelementptr inbounds i8, ptr %81, i64 %88
  %90 = load i32, ptr %5, align 4, !tbaa !68
  %91 = call i1 @llvm.is.constant.i32(i32 %90)
  br i1 %91, label %100, label %92

92:                                               ; preds = %77
  %93 = load ptr, ptr %3, align 8, !tbaa !97
  %94 = getelementptr inbounds nuw %struct.AVFrame, ptr %93, i32 0, i32 3
  %95 = load i32, ptr %94, align 8, !tbaa !104
  %96 = sub nsw i32 0, %95
  %97 = load i32, ptr %5, align 4, !tbaa !68
  %98 = ashr i32 %96, %97
  %99 = sub nsw i32 0, %98
  br label %110

100:                                              ; preds = %77
  %101 = load ptr, ptr %3, align 8, !tbaa !97
  %102 = getelementptr inbounds nuw %struct.AVFrame, ptr %101, i32 0, i32 3
  %103 = load i32, ptr %102, align 8, !tbaa !104
  %104 = load i32, ptr %5, align 4, !tbaa !68
  %105 = shl i32 1, %104
  %106 = add nsw i32 %103, %105
  %107 = sub nsw i32 %106, 1
  %108 = load i32, ptr %5, align 4, !tbaa !68
  %109 = ashr i32 %107, %108
  br label %110

110:                                              ; preds = %100, %92
  %111 = phi i32 [ %99, %92 ], [ %109, %100 ]
  %112 = sext i32 %111 to i64
  call void @llvm.memset.p0.i64(ptr align 1 %89, i8 -128, i64 %112, i1 false)
  %113 = load ptr, ptr %3, align 8, !tbaa !97
  %114 = getelementptr inbounds nuw %struct.AVFrame, ptr %113, i32 0, i32 0
  %115 = getelementptr inbounds [8 x ptr], ptr %114, i64 0, i64 2
  %116 = load ptr, ptr %115, align 8, !tbaa !103
  %117 = load ptr, ptr %3, align 8, !tbaa !97
  %118 = getelementptr inbounds nuw %struct.AVFrame, ptr %117, i32 0, i32 1
  %119 = getelementptr inbounds [8 x i32], ptr %118, i64 0, i64 2
  %120 = load i32, ptr %119, align 8, !tbaa !68
  %121 = load i32, ptr %9, align 4, !tbaa !68
  %122 = mul nsw i32 %120, %121
  %123 = sext i32 %122 to i64
  %124 = getelementptr inbounds i8, ptr %116, i64 %123
  %125 = load i32, ptr %5, align 4, !tbaa !68
  %126 = call i1 @llvm.is.constant.i32(i32 %125)
  br i1 %126, label %135, label %127

127:                                              ; preds = %110
  %128 = load ptr, ptr %3, align 8, !tbaa !97
  %129 = getelementptr inbounds nuw %struct.AVFrame, ptr %128, i32 0, i32 3
  %130 = load i32, ptr %129, align 8, !tbaa !104
  %131 = sub nsw i32 0, %130
  %132 = load i32, ptr %5, align 4, !tbaa !68
  %133 = ashr i32 %131, %132
  %134 = sub nsw i32 0, %133
  br label %145

135:                                              ; preds = %110
  %136 = load ptr, ptr %3, align 8, !tbaa !97
  %137 = getelementptr inbounds nuw %struct.AVFrame, ptr %136, i32 0, i32 3
  %138 = load i32, ptr %137, align 8, !tbaa !104
  %139 = load i32, ptr %5, align 4, !tbaa !68
  %140 = shl i32 1, %139
  %141 = add nsw i32 %138, %140
  %142 = sub nsw i32 %141, 1
  %143 = load i32, ptr %5, align 4, !tbaa !68
  %144 = ashr i32 %142, %143
  br label %145

145:                                              ; preds = %135, %127
  %146 = phi i32 [ %134, %127 ], [ %144, %135 ]
  %147 = sext i32 %146 to i64
  call void @llvm.memset.p0.i64(ptr align 1 %124, i8 -128, i64 %147, i1 false)
  br label %148

148:                                              ; preds = %145
  %149 = load i32, ptr %9, align 4, !tbaa !68
  %150 = add nsw i32 %149, 1
  store i32 %150, ptr %9, align 4, !tbaa !68
  br label %51, !llvm.loop !108

151:                                              ; preds = %76
  store i32 0, ptr %8, align 4
  br label %152

152:                                              ; preds = %151, %45
  call void @llvm.lifetime.end.p0(i64 4, ptr %6) #11
  call void @llvm.lifetime.end.p0(i64 4, ptr %5) #11
  %153 = load i32, ptr %8, align 4
  switch i32 %153, label %155 [
    i32 0, label %154
    i32 1, label %154
  ]

154:                                              ; preds = %152, %152
  ret void

155:                                              ; preds = %152
  unreachable
}