; Function Attrs: nounwind uwtable
define internal fastcc void @color_frame(ptr noundef readonly captures(none) %0, i32 noundef range(i32 16, 129) %1) unnamed_addr #3 {
  %3 = alloca i32, align 4
  %4 = alloca i32, align 4
  call void @llvm.lifetime.start.p0(i64 4, ptr nonnull %3) #10
  call void @llvm.lifetime.start.p0(i64 4, ptr nonnull %4) #10
  %5 = getelementptr inbounds nuw i8, ptr %0, i64 108
  %6 = load i32, ptr %5, align 4, !tbaa !88
  %7 = icmp sgt i32 %6, 0
  br i1 %7, label %.lr.ph, label %._crit_edge

.lr.ph:                                           ; preds = %2
  %8 = getelementptr inbounds nuw i8, ptr %0, i64 64
  %9 = trunc nuw i32 %1 to i8
  %10 = getelementptr inbounds nuw i8, ptr %0, i64 104
  br label %13

._crit_edge:                                      ; preds = %13, %2
  %11 = getelementptr inbounds nuw i8, ptr %0, i64 8
  %12 = load ptr, ptr %11, align 8, !tbaa !93
  %.not = icmp eq ptr %12, null
  br i1 %.not, label %.loopexit, label %24

13:                                               ; preds = %.lr.ph, %13
  %.02324 = phi i32 [ 0, %.lr.ph ], [ %21, %13 ]
  %14 = load ptr, ptr %0, align 8, !tbaa !93
  %15 = load i32, ptr %8, align 8, !tbaa !94
  %16 = mul nsw i32 %15, %.02324
  %17 = sext i32 %16 to i64
  %18 = getelementptr inbounds i8, ptr %14, i64 %17
  %19 = load i32, ptr %10, align 8, !tbaa !95
  %20 = sext i32 %19 to i64
  tail call void @llvm.memset.p0.i64(ptr align 1 %18, i8 %9, i64 %20, i1 false)
  %21 = add nuw nsw i32 %.02324, 1
  %22 = load i32, ptr %5, align 4, !tbaa !88
  %23 = icmp slt i32 %21, %22
  br i1 %23, label %13, label %._crit_edge, !llvm.loop !96

24:                                               ; preds = %._crit_edge
  %25 = getelementptr inbounds nuw i8, ptr %0, i64 116
  %26 = load i32, ptr %25, align 4, !tbaa !98
  %27 = call i32 @av_pix_fmt_get_chroma_sub_sample(i32 noundef %26, ptr noundef nonnull %3, ptr noundef nonnull %4) #10
  %28 = getelementptr inbounds nuw i8, ptr %0, i64 68
  %29 = getelementptr inbounds nuw i8, ptr %0, i64 104
  %30 = getelementptr inbounds nuw i8, ptr %0, i64 16
  %31 = getelementptr inbounds nuw i8, ptr %0, i64 72
  br label %32

32:                                               ; preds = %39, %24
  %.0 = phi i32 [ 0, %24 ], [ %62, %39 ]
  %33 = load i32, ptr %5, align 4, !tbaa !88
  %34 = sub nsw i32 0, %33
  %35 = load i32, ptr %4, align 4, !tbaa !94
  %36 = ashr i32 %34, %35
  %37 = sub nsw i32 0, %36
  %38 = icmp slt i32 %.0, %37
  br i1 %38, label %39, label %.loopexit

39:                                               ; preds = %32
  %40 = load ptr, ptr %11, align 8, !tbaa !93
  %41 = load i32, ptr %28, align 4, !tbaa !94
  %42 = mul nsw i32 %41, %.0
  %43 = sext i32 %42 to i64
  %44 = getelementptr inbounds i8, ptr %40, i64 %43
  %45 = load i32, ptr %29, align 8, !tbaa !95
  %46 = sub nsw i32 0, %45
  %47 = load i32, ptr %3, align 4, !tbaa !94
  %48 = ashr i32 %46, %47
  %49 = sub nsw i32 0, %48
  %50 = sext i32 %49 to i64
  call void @llvm.memset.p0.i64(ptr align 1 %44, i8 -128, i64 %50, i1 false)
  %51 = load ptr, ptr %30, align 8, !tbaa !93
  %52 = load i32, ptr %31, align 8, !tbaa !94
  %53 = mul nsw i32 %52, %.0
  %54 = sext i32 %53 to i64
  %55 = getelementptr inbounds i8, ptr %51, i64 %54
  %56 = load i32, ptr %29, align 8, !tbaa !95
  %57 = sub nsw i32 0, %56
  %58 = load i32, ptr %3, align 4, !tbaa !94
  %59 = ashr i32 %57, %58
  %60 = sub nsw i32 0, %59
  %61 = sext i32 %60 to i64
  call void @llvm.memset.p0.i64(ptr align 1 %55, i8 -128, i64 %61, i1 false)
  %62 = add nuw nsw i32 %.0, 1
  br label %32, !llvm.loop !99

.loopexit:                                        ; preds = %32, %._crit_edge
  call void @llvm.lifetime.end.p0(i64 4, ptr nonnull %4) #10
  call void @llvm.lifetime.end.p0(i64 4, ptr nonnull %3) #10
  ret void
}